target datalayout = "e-m:e-p270:32:32-p271:32:32-p272:64:64-i64:64-i128:128-f80:128-n8:16:32:64-S128"
target triple = "x86_64-pc-linux-gnu"

%"class.std::basic_ostream" = type { ptr, %"class.std::basic_ios" }
%"class.std::basic_ios" = type { %"class.std::ios_base", ptr, i8, i8, ptr, ptr, ptr, ptr }
%"class.std::ios_base" = type { ptr, i64, i64, i32, i32, i32, ptr, %"struct.std::ios_base::_Words", [8 x %"struct.std::ios_base::_Words"], i32, ptr, %"class.std::locale" }
%"struct.std::ios_base::_Words" = type { ptr, i64 }
%"class.std::locale" = type { ptr }

@_ZTIN5boost6nowide4test10test_errorE = linkonce_odr hidden constant { ptr, ptr, ptr } { ptr getelementptr inbounds (ptr, ptr @_ZTVN10__cxxabiv120__si_class_type_infoE, i64 2), ptr @_ZTSN5boost6nowide4test10test_errorE, ptr @_ZTISt13runtime_error }, comdat, align 8
@_ZTISt9exception = external constant ptr
@_ZSt4cerr = external global %"class.std::basic_ostream", align 8
@.str = private unnamed_addr constant [35 x i8] c"Failed with unexpected exception: \00", align 1
@.str.1 = private unnamed_addr constant [24 x i8] c"Failed test assertion: \00", align 1

; Function Attrs: mustprogress uwtable
define available_externally noundef nonnull align 8 dereferenceable(8) ptr @_ZNSolsEPFRSoS_E(ptr noundef nonnull align 8 dereferenceable(8) %0, ptr noundef %1) #5 align 2 {
  %3 = alloca ptr, align 8
  %4 = alloca ptr, align 8
  store ptr %0, ptr %3, align 8, !tbaa !8
  store ptr %1, ptr %4, align 8, !tbaa !8
  %5 = load ptr, ptr %3, align 8
  %6 = load ptr, ptr %4, align 8, !tbaa !8
  %7 = call noundef nonnull align 8 dereferenceable(8) ptr %6(ptr noundef nonnull align 8 dereferenceable(8) %5)
  ret ptr %7
}

; Function Attrs: mustprogress norecurse uwtable
define hidden noundef i32 @main(i32 noundef %0, ptr noundef %1, ptr noundef %2) #4 personality ptr @__gxx_personality_v0 {
  %4 = alloca i32, align 4
  %5 = alloca i32, align 4
  %6 = alloca ptr, align 8
  %7 = alloca ptr, align 8
  %8 = alloca ptr, align 8
  %9 = alloca i32, align 4
  %10 = alloca ptr, align 8
  %11 = alloca ptr, align 8
  store i32 0, ptr %4, align 4
  store i32 %0, ptr %5, align 4, !tbaa !4
  store ptr %1, ptr %6, align 8, !tbaa !8
  store ptr %2, ptr %7, align 8, !tbaa !8
  %12 = load i32, ptr %5, align 4, !tbaa !4
  %13 = load ptr, ptr %6, align 8, !tbaa !8
  %14 = load ptr, ptr %7, align 8, !tbaa !8
  invoke void @_Z9test_mainiPPcS0_(i32 noundef %12, ptr noundef %13, ptr noundef %14)
          to label %15 unwind label %16

15:                                               ; preds = %3
  br label %65

16:                                               ; preds = %3
  %17 = landingpad { ptr, i32 }
          catch ptr @_ZTIN5boost6nowide4test10test_errorE
          catch ptr @_ZTISt9exception
  %18 = extractvalue { ptr, i32 } %17, 0
  store ptr %18, ptr %8, align 8
  %19 = extractvalue { ptr, i32 } %17, 1
  store i32 %19, ptr %9, align 4
  br label %20

20:                                               ; preds = %16
  %21 = load i32, ptr %9, align 4
  %22 = call i32 @llvm.eh.typeid.for.p0(ptr @_ZTIN5boost6nowide4test10test_errorE) #3
  %23 = icmp eq i32 %21, %22
  br i1 %23, label %24, label %38

24:                                               ; preds = %20
  call void @llvm.lifetime.start.p0(i64 8, ptr %11) #3
  %25 = load ptr, ptr %8, align 8
  %26 = call ptr @__cxa_begin_catch(ptr %25) #3
  store ptr %26, ptr %11, align 8
  %27 = invoke noundef nonnull align 8 dereferenceable(8) ptr @_ZStlsISt11char_traitsIcEERSt13basic_ostreamIcT_ES5_PKc(ptr noundef nonnull align 8 dereferenceable(8) @_ZSt4cerr, ptr noundef @.str.1)
          to label %28 unwind label %60

28:                                               ; preds = %24
  %29 = load ptr, ptr %11, align 8, !tbaa !8
  %30 = load ptr, ptr %29, align 8, !tbaa !10
  %31 = getelementptr inbounds ptr, ptr %30, i64 2
  %32 = load ptr, ptr %31, align 8
  %33 = call noundef ptr %32(ptr noundef nonnull align 8 dereferenceable(16) %29) #3
  %34 = invoke noundef nonnull align 8 dereferenceable(8) ptr @_ZStlsISt11char_traitsIcEERSt13basic_ostreamIcT_ES5_PKc(ptr noundef nonnull align 8 dereferenceable(8) %27, ptr noundef %33)
          to label %35 unwind label %60

35:                                               ; preds = %28
  %36 = invoke noundef nonnull align 8 dereferenceable(8) ptr @_ZNSolsEPFRSoS_E(ptr noundef nonnull align 8 dereferenceable(8) %34, ptr noundef @_ZSt4endlIcSt11char_traitsIcEERSt13basic_ostreamIT_T0_ES6_)
          to label %37 unwind label %60

37:                                               ; preds = %35
  store i32 1, ptr %4, align 4
  call void @__cxa_end_catch()
  call void @llvm.lifetime.end.p0(i64 8, ptr %11) #3
  br label %66

38:                                               ; preds = %20
  %39 = call i32 @llvm.eh.typeid.for.p0(ptr @_ZTISt9exception) #3
  %40 = icmp eq i32 %21, %39
  br i1 %40, label %41, label %68

41:                                               ; preds = %38
  call void @llvm.lifetime.start.p0(i64 8, ptr %10) #3
  %42 = load ptr, ptr %8, align 8
  %43 = call ptr @__cxa_begin_catch(ptr %42) #3
  store ptr %43, ptr %10, align 8
  %44 = invoke noundef nonnull align 8 dereferenceable(8) ptr @_ZStlsISt11char_traitsIcEERSt13basic_ostreamIcT_ES5_PKc(ptr noundef nonnull align 8 dereferenceable(8) @_ZSt4cerr, ptr noundef @.str)
          to label %45 unwind label %55

45:                                               ; preds = %41
  %46 = load ptr, ptr %10, align 8, !tbaa !8
  %47 = load ptr, ptr %46, align 8, !tbaa !10
  %48 = getelementptr inbounds ptr, ptr %47, i64 2
  %49 = load ptr, ptr %48, align 8
  %50 = call noundef ptr %49(ptr noundef nonnull align 8 dereferenceable(8) %46) #3
  %51 = invoke noundef nonnull align 8 dereferenceable(8) ptr @_ZStlsISt11char_traitsIcEERSt13basic_ostreamIcT_ES5_PKc(ptr noundef nonnull align 8 dereferenceable(8) %44, ptr noundef %50)
          to label %52 unwind label %55

52:                                               ; preds = %45
  %53 = invoke noundef nonnull align 8 dereferenceable(8) ptr @_ZNSolsEPFRSoS_E(ptr noundef nonnull align 8 dereferenceable(8) %51, ptr noundef @_ZSt4endlIcSt11char_traitsIcEERSt13basic_ostreamIT_T0_ES6_)
          to label %54 unwind label %55

54:                                               ; preds = %52
  store i32 1, ptr %4, align 4
  call void @__cxa_end_catch()
  call void @llvm.lifetime.end.p0(i64 8, ptr %10) #3
  br label %66

55:                                               ; preds = %52, %45, %41
  %56 = landingpad { ptr, i32 }
          cleanup
  %57 = extractvalue { ptr, i32 } %56, 0
  store ptr %57, ptr %8, align 8
  %58 = extractvalue { ptr, i32 } %56, 1
  store i32 %58, ptr %9, align 4
  invoke void @__cxa_end_catch()
          to label %59 unwind label %73

59:                                               ; preds = %55
  call void @llvm.lifetime.end.p0(i64 8, ptr %10) #3
  br label %68

60:                                               ; preds = %35, %28, %24
  %61 = landingpad { ptr, i32 }
          cleanup
  %62 = extractvalue { ptr, i32 } %61, 0
  store ptr %62, ptr %8, align 8
  %63 = extractvalue { ptr, i32 } %61, 1
  store i32 %63, ptr %9, align 4
  invoke void @__cxa_end_catch()
          to label %64 unwind label %73

64:                                               ; preds = %60
  call void @llvm.lifetime.end.p0(i64 8, ptr %11) #3
  br label %68

65:                                               ; preds = %15
  store i32 0, ptr %4, align 4
  br label %66

66:                                               ; preds = %65, %37, %54
  %67 = load i32, ptr %4, align 4
  ret i32 %67

68:                                               ; preds = %64, %59, %38
  %69 = load ptr, ptr %8, align 8
  %70 = load i32, ptr %9, align 4
  %71 = insertvalue { ptr, i32 } poison, ptr %69, 0
  %72 = insertvalue { ptr, i32 } %71, i32 %70, 1
  resume { ptr, i32 } %72

73:                                               ; preds = %60, %55
  %74 = landingpad { ptr, i32 }
          catch ptr null
  %75 = extractvalue { ptr, i32 } %74, 0
  call void @__clang_call_terminate(ptr %75) #18
  unreachable
}